; ModuleID = '15/663.c'
source_filename = "15/663.c"
target datalayout = "e-m:e-p270:32:32-p271:32:32-p272:64:64-i64:64-f80:128-n8:16:32:64-S128"
target triple = "x86_64-pc-linux-gnu"

@.str = private unnamed_addr constant [3 x i8] c"%d\00", align 1
@.str.1 = private unnamed_addr constant [4 x i8] c"%d\0A\00", align 1

; Function Attrs: noinline nounwind uwtable
define dso_local i32 @main() #0 {
  %1 = alloca i32, align 4
  %2 = alloca [256 x [256 x i32]], align 16
  %3 = alloca i32, align 4
  %4 = alloca i32, align 4
  %5 = alloca i32, align 4
  %6 = alloca i32, align 4
  %7 = alloca i32, align 4
  %8 = alloca i32, align 4
  %9 = alloca i32, align 4
  %10 = alloca i32, align 4
  store i32 0, i32* %1, align 4
  store i32 -1, i32* %6, align 4
  store i32 -1, i32* %8, align 4
  %11 = call i32 (i8*, ...) @__isoc99_scanf(i8* getelementptr inbounds ([3 x i8], [3 x i8]* @.str, i64 0, i64 0), i32* %3)
  store i32 0, i32* %4, align 4
  br label %12

12:                                               ; preds = %33, %0
  %13 = load i32, i32* %4, align 4
  %14 = load i32, i32* %3, align 4
  %15 = icmp slt i32 %13, %14
  br i1 %15, label %16, label %36

16:                                               ; preds = %12
  store i32 0, i32* %5, align 4
  br label %17

17:                                               ; preds = %29, %16
  %18 = load i32, i32* %5, align 4
  %19 = load i32, i32* %3, align 4
  %20 = icmp slt i32 %18, %19
  br i1 %20, label %21, label %32

21:                                               ; preds = %17
  %22 = load i32, i32* %4, align 4
  %23 = sext i32 %22 to i64
  %24 = getelementptr inbounds [256 x [256 x i32]], [256 x [256 x i32]]* %2, i64 0, i64 %23
  %25 = load i32, i32* %5, align 4
  %26 = sext i32 %25 to i64
  %27 = getelementptr inbounds [256 x i32], [256 x i32]* %24, i64 0, i64 %26
  %28 = call i32 (i8*, ...) @__isoc99_scanf(i8* getelementptr inbounds ([3 x i8], [3 x i8]* @.str, i64 0, i64 0), i32* %27)
  br label %29

29:                                               ; preds = %21
  %30 = load i32, i32* %5, align 4
  %31 = add nsw i32 %30, 1
  store i32 %31, i32* %5, align 4
  br label %17

32:                                               ; preds = %17
  br label %33

33:                                               ; preds = %32
  %34 = load i32, i32* %4, align 4
  %35 = add nsw i32 %34, 1
  store i32 %35, i32* %4, align 4
  br label %12

36:                                               ; preds = %12
  store i32 0, i32* %4, align 4
  br label %37

37:                                               ; preds = %67, %36
  %38 = load i32, i32* %4, align 4
  %39 = load i32, i32* %3, align 4
  %40 = icmp slt i32 %38, %39
  br i1 %40, label %41, label %70

41:                                               ; preds = %37
  store i32 0, i32* %5, align 4
  br label %42

42:                                               ; preds = %59, %41
  %43 = load i32, i32* %5, align 4
  %44 = load i32, i32* %3, align 4
  %45 = icmp slt i32 %43, %44
  br i1 %45, label %46, label %62

46:                                               ; preds = %42
  %47 = load i32, i32* %4, align 4
  %48 = sext i32 %47 to i64
  %49 = getelementptr inbounds [256 x [256 x i32]], [256 x [256 x i32]]* %2, i64 0, i64 %48
  %50 = load i32, i32* %5, align 4
  %51 = sext i32 %50 to i64
  %52 = getelementptr inbounds [256 x i32], [256 x i32]* %49, i64 0, i64 %51
  %53 = load i32, i32* %52, align 4
  %54 = icmp ne i32 %53, 0
  br i1 %54, label %55, label %56

55:                                               ; preds = %46
  br label %59

56:                                               ; preds = %46
  %57 = load i32, i32* %4, align 4
  store i32 %57, i32* %6, align 4
  %58 = load i32, i32* %5, align 4
  store i32 %58, i32* %7, align 4
  br label %62

59:                                               ; preds = %55
  %60 = load i32, i32* %5, align 4
  %61 = add nsw i32 %60, 1
  store i32 %61, i32* %5, align 4
  br label %42

62:                                               ; preds = %56, %42
  %63 = load i32, i32* %6, align 4
  %64 = icmp sge i32 %63, 0
  br i1 %64, label %65, label %66

65:                                               ; preds = %62
  br label %70

66:                                               ; preds = %62
  br label %67

67:                                               ; preds = %66
  %68 = load i32, i32* %4, align 4
  %69 = add nsw i32 %68, 1
  store i32 %69, i32* %4, align 4
  br label %37

70:                                               ; preds = %65, %37
  %71 = load i32, i32* %3, align 4
  %72 = sub nsw i32 %71, 1
  store i32 %72, i32* %4, align 4
  br label %73

73:                                               ; preds = %103, %70
  %74 = load i32, i32* %4, align 4
  %75 = icmp sge i32 %74, 0
  br i1 %75, label %76, label %106

76:                                               ; preds = %73
  %77 = load i32, i32* %3, align 4
  %78 = sub nsw i32 %77, 1
  store i32 %78, i32* %5, align 4
  br label %79

79:                                               ; preds = %95, %76
  %80 = load i32, i32* %5, align 4
  %81 = icmp sge i32 %80, 0
  br i1 %81, label %82, label %98

82:                                               ; preds = %79
  %83 = load i32, i32* %4, align 4
  %84 = sext i32 %83 to i64
  %85 = getelementptr inbounds [256 x [256 x i32]], [256 x [256 x i32]]* %2, i64 0, i64 %84
  %86 = load i32, i32* %5, align 4
  %87 = sext i32 %86 to i64
  %88 = getelementptr inbounds [256 x i32], [256 x i32]* %85, i64 0, i64 %87
  %89 = load i32, i32* %88, align 4
  %90 = icmp ne i32 %89, 0
  br i1 %90, label %91, label %92

91:                                               ; preds = %82
  br label %95

92:                                               ; preds = %82
  %93 = load i32, i32* %4, align 4
  store i32 %93, i32* %8, align 4
  %94 = load i32, i32* %5, align 4
  store i32 %94, i32* %9, align 4
  br label %98

95:                                               ; preds = %91
  %96 = load i32, i32* %5, align 4
  %97 = add nsw i32 %96, -1
  store i32 %97, i32* %5, align 4
  br label %79

98:                                               ; preds = %92, %79
  %99 = load i32, i32* %8, align 4
  %100 = icmp sge i32 %99, 0
  br i1 %100, label %101, label %102

101:                                              ; preds = %98
  br label %106

102:                                              ; preds = %98
  br label %103

103:                                              ; preds = %102
  %104 = load i32, i32* %4, align 4
  %105 = add nsw i32 %104, -1
  store i32 %105, i32* %4, align 4
  br label %73

106:                                              ; preds = %101, %73
  %107 = load i32, i32* %8, align 4
  %108 = load i32, i32* %6, align 4
  %109 = sub nsw i32 %107, %108
  %110 = sub nsw i32 %109, 1
  %111 = load i32, i32* %9, align 4
  %112 = load i32, i32* %7, align 4
  %113 = sub nsw i32 %111, %112
  %114 = sub nsw i32 %113, 1
  %115 = mul nsw i32 %110, %114
  store i32 %115, i32* %10, align 4
  %116 = load i32, i32* %10, align 4
  %117 = call i32 (i8*, ...) @printf(i8* getelementptr inbounds ([4 x i8], [4 x i8]* @.str.1, i64 0, i64 0), i32 %116)
  ret i32 0
}

declare dso_local i32 @__isoc99_scanf(i8*, ...) #1

declare dso_local i32 @printf(i8*, ...) #1


!llvm.module.flags = !{!0}
!llvm.ident = !{!1}

!0 = !{i32 1, !"wchar_size", i32 4}
!1 = !{!"clang version 10.0.0-4ubuntu1 "}
